; Function Attrs: inlinehint nounwind uwtable
define internal fastcc void @Acb_NtkCreateFanout(ptr noundef captures(none) initializes((436, 440)) %0) unnamed_addr #2 {
  %2 = getelementptr inbounds nuw i8, ptr %0, i64 432
  %3 = getelementptr inbounds nuw i8, ptr %0, i64 112
  %.val.i = load i32, ptr %3, align 8, !tbaa !53
  %4 = load i32, ptr %2, align 8, !tbaa !54
  %.not.i.i.i = icmp slt i32 %4, %.val.i
  br i1 %.not.i.i.i, label %5, label %Acb_NtkCleanObjFanout.exit

5:                                                ; preds = %1
  %6 = getelementptr inbounds nuw i8, ptr %0, i64 440
  %7 = load ptr, ptr %6, align 8, !tbaa !19
  %.not13.i.i.i = icmp eq ptr %7, null
  %8 = sext i32 %.val.i to i64
  %9 = shl nsw i64 %8, 4
  br i1 %.not13.i.i.i, label %12, label %10

10:                                               ; preds = %5
  %11 = tail call ptr @realloc(ptr noundef nonnull %7, i64 noundef %9) #8
  %.pre.i.i.i = load i32, ptr %2, align 8, !tbaa !54
  br label %14

12:                                               ; preds = %5
  %13 = tail call noalias ptr @malloc(i64 noundef %9) #9
  br label %14

14:                                               ; preds = %12, %10
  %15 = phi i32 [ %.pre.i.i.i, %10 ], [ %4, %12 ]
  %16 = phi ptr [ %11, %10 ], [ %13, %12 ]
  store ptr %16, ptr %6, align 8, !tbaa !19
  %17 = sext i32 %15 to i64
  %18 = getelementptr inbounds %struct.Vec_Int_t_, ptr %16, i64 %17
  %19 = sub nsw i32 %.val.i, %15
  %20 = sext i32 %19 to i64
  %21 = shl nsw i64 %20, 4
  tail call void @llvm.memset.p0.i64(ptr align 8 %18, i8 0, i64 %21, i1 false)
  store i32 %.val.i, ptr %2, align 8, !tbaa !54
  br label %Acb_NtkCleanObjFanout.exit

Acb_NtkCleanObjFanout.exit:                       ; preds = %1, %14
  %22 = getelementptr inbounds nuw i8, ptr %0, i64 436
  store i32 %.val.i, ptr %22, align 4, !tbaa !41
  %23 = getelementptr i8, ptr %0, i64 116
  %.val79 = load i32, ptr %23, align 4, !tbaa !45
  %24 = icmp sgt i32 %.val79, 1
  br i1 %24, label %.lr.ph, label %._crit_edge

.lr.ph:                                           ; preds = %Acb_NtkCleanObjFanout.exit
  %25 = getelementptr i8, ptr %0, i64 120
  %26 = getelementptr i8, ptr %0, i64 136
  %27 = getelementptr i8, ptr %0, i64 152
  %28 = getelementptr i8, ptr %0, i64 440
  br label %29

29:                                               ; preds = %.lr.ph, %Acb_ObjAddFaninFanout.exit
  %.val712 = phi i32 [ %.val79, %.lr.ph ], [ %.val7, %Acb_ObjAddFaninFanout.exit ]
  %indvars.iv = phi i64 [ 1, %.lr.ph ], [ %indvars.iv.next, %Acb_ObjAddFaninFanout.exit ]
  %.val = load ptr, ptr %25, align 8, !tbaa !32
  %30 = getelementptr inbounds nuw i8, ptr %.val, i64 %indvars.iv
  %31 = load i8, ptr %30, align 1, !tbaa !36
  %.not = icmp eq i8 %31, 0
  br i1 %.not, label %Acb_ObjAddFaninFanout.exit, label %32

32:                                               ; preds = %29
  %.val.i8 = load ptr, ptr %26, align 8, !tbaa !12
  %.val9.i = load ptr, ptr %27, align 8, !tbaa !12
  %33 = getelementptr inbounds nuw i32, ptr %.val.i8, i64 %indvars.iv
  %34 = load i32, ptr %33, align 4, !tbaa !15
  %35 = sext i32 %34 to i64
  %36 = getelementptr inbounds i32, ptr %.val9.i, i64 %35
  %37 = load i32, ptr %36, align 4, !tbaa !15
  %38 = icmp sgt i32 %37, 0
  br i1 %38, label %.lr.ph.i.preheader, label %Acb_ObjAddFaninFanout.exit

.lr.ph.i.preheader:                               ; preds = %32
  %39 = trunc nuw nsw i64 %indvars.iv to i32
  br label %.lr.ph.i

.lr.ph.i:                                         ; preds = %.lr.ph.i.preheader, %Vec_IntPush.exit.i
  %indvars.iv.i = phi i64 [ %indvars.iv.next.i, %Vec_IntPush.exit.i ], [ 0, %.lr.ph.i.preheader ]
  %indvars.iv.next.i = add nuw nsw i64 %indvars.iv.i, 1
  %40 = getelementptr inbounds nuw i32, ptr %36, i64 %indvars.iv.next.i
  %41 = load i32, ptr %40, align 4, !tbaa !15
  %.val10.i = load ptr, ptr %28, align 8, !tbaa !19
  %42 = sext i32 %41 to i64
  %43 = getelementptr inbounds %struct.Vec_Int_t_, ptr %.val10.i, i64 %42
  %44 = getelementptr inbounds nuw i8, ptr %43, i64 4
  %45 = load i32, ptr %44, align 4, !tbaa !22
  %46 = load i32, ptr %43, align 8, !tbaa !26
  %47 = icmp eq i32 %45, %46
  br i1 %47, label %48, label %.Vec_IntGrow.exit10_crit_edge.i.i

.Vec_IntGrow.exit10_crit_edge.i.i:                ; preds = %.lr.ph.i
  %.phi.trans.insert.i.i = getelementptr inbounds nuw i8, ptr %43, i64 8
  %.pre.i.i = load ptr, ptr %.phi.trans.insert.i.i, align 8, !tbaa !12
  br label %Vec_IntPush.exit.i

48:                                               ; preds = %.lr.ph.i
  %49 = icmp slt i32 %45, 16
  br i1 %49, label %50, label %58

50:                                               ; preds = %48
  %51 = getelementptr inbounds nuw i8, ptr %43, i64 8
  %52 = load ptr, ptr %51, align 8, !tbaa !12
  %.not9.i.i.i = icmp eq ptr %52, null
  br i1 %.not9.i.i.i, label %55, label %53

53:                                               ; preds = %50
  %54 = tail call dereferenceable_or_null(64) ptr @realloc(ptr noundef nonnull %52, i64 noundef 64) #8
  br label %Vec_IntGrow.exit.i.i

55:                                               ; preds = %50
  %56 = tail call noalias dereferenceable_or_null(64) ptr @malloc(i64 noundef 64) #9
  br label %Vec_IntGrow.exit.i.i

Vec_IntGrow.exit.i.i:                             ; preds = %55, %53
  %57 = phi ptr [ %54, %53 ], [ %56, %55 ]
  store ptr %57, ptr %51, align 8, !tbaa !12
  store i32 16, ptr %43, align 8, !tbaa !26
  br label %Vec_IntPush.exit.i

58:                                               ; preds = %48
  %59 = shl nuw nsw i32 %45, 1
  %60 = getelementptr inbounds nuw i8, ptr %43, i64 8
  %61 = load ptr, ptr %60, align 8, !tbaa !12
  %.not9.i9.i.i = icmp eq ptr %61, null
  %62 = zext nneg i32 %59 to i64
  %63 = shl nuw nsw i64 %62, 2
  br i1 %.not9.i9.i.i, label %66, label %64

64:                                               ; preds = %58
  %65 = tail call ptr @realloc(ptr noundef nonnull %61, i64 noundef %63) #8
  br label %68

66:                                               ; preds = %58
  %67 = tail call noalias ptr @malloc(i64 noundef %63) #9
  br label %68

68:                                               ; preds = %66, %64
  %69 = phi ptr [ %65, %64 ], [ %67, %66 ]
  store ptr %69, ptr %60, align 8, !tbaa !12
  store i32 %59, ptr %43, align 8, !tbaa !26
  br label %Vec_IntPush.exit.i

Vec_IntPush.exit.i:                               ; preds = %68, %Vec_IntGrow.exit.i.i, %.Vec_IntGrow.exit10_crit_edge.i.i
  %70 = phi ptr [ %.pre.i.i, %.Vec_IntGrow.exit10_crit_edge.i.i ], [ %69, %68 ], [ %57, %Vec_IntGrow.exit.i.i ]
  %71 = load i32, ptr %44, align 4, !tbaa !22
  %72 = add nsw i32 %71, 1
  store i32 %72, ptr %44, align 4, !tbaa !22
  %73 = sext i32 %71 to i64
  %74 = getelementptr inbounds i32, ptr %70, i64 %73
  store i32 %39, ptr %74, align 4, !tbaa !15
  %75 = load i32, ptr %36, align 4, !tbaa !15
  %76 = sext i32 %75 to i64
  %77 = icmp slt i64 %indvars.iv.next.i, %76
  br i1 %77, label %.lr.ph.i, label %Acb_ObjAddFaninFanout.exit.loopexit, !llvm.loop !55

Acb_ObjAddFaninFanout.exit.loopexit:              ; preds = %Vec_IntPush.exit.i
  %.val7.pre = load i32, ptr %23, align 4, !tbaa !45
  br label %Acb_ObjAddFaninFanout.exit

Acb_ObjAddFaninFanout.exit:                       ; preds = %Acb_ObjAddFaninFanout.exit.loopexit, %32, %29
  %.val7 = phi i32 [ %.val7.pre, %Acb_ObjAddFaninFanout.exit.loopexit ], [ %.val712, %32 ], [ %.val712, %29 ]
  %indvars.iv.next = add nuw nsw i64 %indvars.iv, 1
  %78 = sext i32 %.val7 to i64
  %79 = icmp slt i64 %indvars.iv.next, %78
  br i1 %79, label %29, label %._crit_edge, !llvm.loop !56

._crit_edge:                                      ; preds = %Acb_ObjAddFaninFanout.exit, %Acb_NtkCleanObjFanout.exit
  ret void
}